target datalayout = "e-m:e-p270:32:32-p271:32:32-p272:64:64-i64:64-i128:128-f80:128-n8:16:32:64-S128"
target triple = "x86_64-pc-linux-gnu"

%struct.GCRef = type { i64 }
%struct.lua_State = type { %struct.GCRef, i8, i8, i8, i8, %struct.MRef, %struct.GCRef, ptr, ptr, %struct.MRef, %struct.MRef, %struct.GCRef, %struct.GCRef, ptr, i32 }
%struct.MRef = type { i64 }
%union.TValue = type { i64 }

@lj_err_allmsg = hidden global ptr @.str, align 8

; Function Attrs: noreturn nounwind uwtable
define hidden void @lj_err_stkov(ptr noundef %0) #11 {
  %2 = alloca ptr, align 8
  store ptr %0, ptr %2, align 8, !tbaa !18
  %3 = load ptr, ptr %2, align 8, !tbaa !18
  %4 = load ptr, ptr @lj_err_allmsg, align 8, !tbaa !50
  %5 = getelementptr inbounds i8, ptr %4, i64 104
  %6 = load ptr, ptr %2, align 8, !tbaa !18
  %7 = getelementptr inbounds nuw %struct.lua_State, ptr %6, i32 0, i32 7
  %8 = load ptr, ptr %7, align 8, !tbaa !24
  %9 = getelementptr inbounds %union.TValue, ptr %8, i64 -1
  call void @lj_debug_addloc(ptr noundef %3, ptr noundef %5, ptr noundef %9, ptr noundef null)
  %10 = load ptr, ptr %2, align 8, !tbaa !18
  call void @lj_err_run(ptr noundef %10) #18
  unreachable
}