; Function Attrs: noreturn nounwind uwtable
define hidden void @lj_err_stkov(ptr noundef %0) local_unnamed_addr #9 {
  %2 = load ptr, ptr @lj_err_allmsg, align 8, !tbaa !36
  %3 = getelementptr inbounds nuw i8, ptr %2, i64 104
  %4 = getelementptr inbounds nuw i8, ptr %0, i64 32
  %5 = load ptr, ptr %4, align 8, !tbaa !15
  %6 = getelementptr inbounds i8, ptr %5, i64 -8
  tail call void @lj_debug_addloc(ptr noundef %0, ptr noundef nonnull %3, ptr noundef nonnull %6, ptr noundef null) #15
  tail call void @lj_err_run(ptr noundef %0) #19
  unreachable
}